target datalayout = "e-m:e-p270:32:32-p271:32:32-p272:64:64-i64:64-i128:128-f80:128-n8:16:32:64-S128"
target triple = "x86_64-pc-linux-gnu"

%struct.FSEv06_DTableHeader = type { i16, i16 }
%struct.FSEv06_decode_t = type { i16, i8, i8 }

; Function Attrs: inlinehint nounwind uwtable
define internal i32 @BITv06_highbit32(i32 noundef %0) #2 {
  %2 = alloca i32, align 4
  store i32 %0, ptr %2, align 4, !tbaa !15
  %3 = load i32, ptr %2, align 4, !tbaa !15
  %4 = call i32 @llvm.ctlz.i32(i32 %3, i1 true)
  %5 = xor i32 %4, 31
  ret i32 %5
}

; Function Attrs: nounwind uwtable
define i64 @FSEv06_buildDTable(ptr noundef %0, ptr noundef %1, i32 noundef %2, i32 noundef %3) #0 {
  %5 = alloca i64, align 8
  %6 = alloca ptr, align 8
  %7 = alloca ptr, align 8
  %8 = alloca i32, align 4
  %9 = alloca i32, align 4
  %10 = alloca ptr, align 8
  %11 = alloca ptr, align 8
  %12 = alloca [256 x i16], align 16
  %13 = alloca i32, align 4
  %14 = alloca i32, align 4
  %15 = alloca i32, align 4
  %16 = alloca i32, align 4
  %17 = alloca %struct.FSEv06_DTableHeader, align 2
  %18 = alloca i16, align 2
  %19 = alloca i32, align 4
  %20 = alloca i32, align 4
  %21 = alloca i32, align 4
  %22 = alloca i32, align 4
  %23 = alloca i32, align 4
  %24 = alloca i32, align 4
  %25 = alloca i32, align 4
  %26 = alloca i8, align 1
  %27 = alloca i16, align 2
  store ptr %0, ptr %6, align 8, !tbaa !10
  store ptr %1, ptr %7, align 8, !tbaa !7
  store i32 %2, ptr %8, align 4, !tbaa !15
  store i32 %3, ptr %9, align 4, !tbaa !15
  call void @llvm.lifetime.start.p0(i64 8, ptr %10) #10
  %28 = load ptr, ptr %6, align 8, !tbaa !10
  %29 = getelementptr inbounds i32, ptr %28, i64 1
  store ptr %29, ptr %10, align 8, !tbaa !12
  call void @llvm.lifetime.start.p0(i64 8, ptr %11) #10
  %30 = load ptr, ptr %10, align 8, !tbaa !12
  store ptr %30, ptr %11, align 8, !tbaa !12
  call void @llvm.lifetime.start.p0(i64 512, ptr %12) #10
  call void @llvm.lifetime.start.p0(i64 4, ptr %13) #10
  %31 = load i32, ptr %8, align 4, !tbaa !15
  %32 = add i32 %31, 1
  store i32 %32, ptr %13, align 4, !tbaa !15
  call void @llvm.lifetime.start.p0(i64 4, ptr %14) #10
  %33 = load i32, ptr %9, align 4, !tbaa !15
  %34 = shl i32 1, %33
  store i32 %34, ptr %14, align 4, !tbaa !15
  call void @llvm.lifetime.start.p0(i64 4, ptr %15) #10
  %35 = load i32, ptr %14, align 4, !tbaa !15
  %36 = sub i32 %35, 1
  store i32 %36, ptr %15, align 4, !tbaa !15
  %37 = load i32, ptr %8, align 4, !tbaa !15
  %38 = icmp ugt i32 %37, 255
  br i1 %38, label %39, label %40

39:                                               ; preds = %4
  store i64 -46, ptr %5, align 8
  store i32 1, ptr %16, align 4
  br label %214

40:                                               ; preds = %4
  %41 = load i32, ptr %9, align 4, !tbaa !15
  %42 = icmp ugt i32 %41, 12
  br i1 %42, label %43, label %44

43:                                               ; preds = %40
  store i64 -44, ptr %5, align 8
  store i32 1, ptr %16, align 4
  br label %214

44:                                               ; preds = %40
  call void @llvm.lifetime.start.p0(i64 4, ptr %17) #10
  %45 = load i32, ptr %9, align 4, !tbaa !15
  %46 = trunc i32 %45 to i16
  %47 = getelementptr inbounds nuw %struct.FSEv06_DTableHeader, ptr %17, i32 0, i32 0
  store i16 %46, ptr %47, align 2, !tbaa !25
  %48 = getelementptr inbounds nuw %struct.FSEv06_DTableHeader, ptr %17, i32 0, i32 1
  store i16 1, ptr %48, align 2, !tbaa !27
  call void @llvm.lifetime.start.p0(i64 2, ptr %18) #10
  %49 = load i32, ptr %9, align 4, !tbaa !15
  %50 = sub i32 %49, 1
  %51 = shl i32 1, %50
  %52 = trunc i32 %51 to i16
  store i16 %52, ptr %18, align 2, !tbaa !20
  call void @llvm.lifetime.start.p0(i64 4, ptr %19) #10
  store i32 0, ptr %19, align 4, !tbaa !15
  br label %53

53:                                               ; preds = %99, %44
  %54 = load i32, ptr %19, align 4, !tbaa !15
  %55 = load i32, ptr %13, align 4, !tbaa !15
  %56 = icmp ult i32 %54, %55
  br i1 %56, label %57, label %102

57:                                               ; preds = %53
  %58 = load ptr, ptr %7, align 8, !tbaa !7
  %59 = load i32, ptr %19, align 4, !tbaa !15
  %60 = zext i32 %59 to i64
  %61 = getelementptr inbounds nuw i16, ptr %58, i64 %60
  %62 = load i16, ptr %61, align 2, !tbaa !20
  %63 = sext i16 %62 to i32
  %64 = icmp eq i32 %63, -1
  br i1 %64, label %65, label %77

65:                                               ; preds = %57
  %66 = load i32, ptr %19, align 4, !tbaa !15
  %67 = trunc i32 %66 to i8
  %68 = load ptr, ptr %11, align 8, !tbaa !12
  %69 = load i32, ptr %15, align 4, !tbaa !15
  %70 = add i32 %69, -1
  store i32 %70, ptr %15, align 4, !tbaa !15
  %71 = zext i32 %69 to i64
  %72 = getelementptr inbounds nuw %struct.FSEv06_decode_t, ptr %68, i64 %71
  %73 = getelementptr inbounds nuw %struct.FSEv06_decode_t, ptr %72, i32 0, i32 1
  store i8 %67, ptr %73, align 2, !tbaa !28
  %74 = load i32, ptr %19, align 4, !tbaa !15
  %75 = zext i32 %74 to i64
  %76 = getelementptr inbounds nuw [256 x i16], ptr %12, i64 0, i64 %75
  store i16 1, ptr %76, align 2, !tbaa !20
  br label %98

77:                                               ; preds = %57
  %78 = load ptr, ptr %7, align 8, !tbaa !7
  %79 = load i32, ptr %19, align 4, !tbaa !15
  %80 = zext i32 %79 to i64
  %81 = getelementptr inbounds nuw i16, ptr %78, i64 %80
  %82 = load i16, ptr %81, align 2, !tbaa !20
  %83 = sext i16 %82 to i32
  %84 = load i16, ptr %18, align 2, !tbaa !20
  %85 = sext i16 %84 to i32
  %86 = icmp sge i32 %83, %85
  br i1 %86, label %87, label %89

87:                                               ; preds = %77
  %88 = getelementptr inbounds nuw %struct.FSEv06_DTableHeader, ptr %17, i32 0, i32 1
  store i16 0, ptr %88, align 2, !tbaa !27
  br label %89

89:                                               ; preds = %87, %77
  %90 = load ptr, ptr %7, align 8, !tbaa !7
  %91 = load i32, ptr %19, align 4, !tbaa !15
  %92 = zext i32 %91 to i64
  %93 = getelementptr inbounds nuw i16, ptr %90, i64 %92
  %94 = load i16, ptr %93, align 2, !tbaa !20
  %95 = load i32, ptr %19, align 4, !tbaa !15
  %96 = zext i32 %95 to i64
  %97 = getelementptr inbounds nuw [256 x i16], ptr %12, i64 0, i64 %96
  store i16 %94, ptr %97, align 2, !tbaa !20
  br label %98

98:                                               ; preds = %89, %65
  br label %99

99:                                               ; preds = %98
  %100 = load i32, ptr %19, align 4, !tbaa !15
  %101 = add i32 %100, 1
  store i32 %101, ptr %19, align 4, !tbaa !15
  br label %53, !llvm.loop !30

102:                                              ; preds = %53
  call void @llvm.lifetime.end.p0(i64 4, ptr %19) #10
  call void @llvm.lifetime.end.p0(i64 2, ptr %18) #10
  %103 = load ptr, ptr %6, align 8, !tbaa !10
  call void @llvm.memcpy.p0.p0.i64(ptr align 4 %103, ptr align 2 %17, i64 4, i1 false)
  call void @llvm.lifetime.end.p0(i64 4, ptr %17) #10
  call void @llvm.lifetime.start.p0(i64 4, ptr %20) #10
  %104 = load i32, ptr %14, align 4, !tbaa !15
  %105 = sub i32 %104, 1
  store i32 %105, ptr %20, align 4, !tbaa !15
  call void @llvm.lifetime.start.p0(i64 4, ptr %21) #10
  %106 = load i32, ptr %14, align 4, !tbaa !15
  %107 = lshr i32 %106, 1
  %108 = load i32, ptr %14, align 4, !tbaa !15
  %109 = lshr i32 %108, 3
  %110 = add i32 %107, %109
  %111 = add i32 %110, 3
  store i32 %111, ptr %21, align 4, !tbaa !15
  call void @llvm.lifetime.start.p0(i64 4, ptr %22) #10
  call void @llvm.lifetime.start.p0(i64 4, ptr %23) #10
  store i32 0, ptr %23, align 4, !tbaa !15
  store i32 0, ptr %22, align 4, !tbaa !15
  br label %112

112:                                              ; preds = %154, %102
  %113 = load i32, ptr %22, align 4, !tbaa !15
  %114 = load i32, ptr %13, align 4, !tbaa !15
  %115 = icmp ult i32 %113, %114
  br i1 %115, label %116, label %157

116:                                              ; preds = %112
  call void @llvm.lifetime.start.p0(i64 4, ptr %24) #10
  store i32 0, ptr %24, align 4, !tbaa !15
  br label %117

117:                                              ; preds = %150, %116
  %118 = load i32, ptr %24, align 4, !tbaa !15
  %119 = load ptr, ptr %7, align 8, !tbaa !7
  %120 = load i32, ptr %22, align 4, !tbaa !15
  %121 = zext i32 %120 to i64
  %122 = getelementptr inbounds nuw i16, ptr %119, i64 %121
  %123 = load i16, ptr %122, align 2, !tbaa !20
  %124 = sext i16 %123 to i32
  %125 = icmp slt i32 %118, %124
  br i1 %125, label %126, label %153

126:                                              ; preds = %117
  %127 = load i32, ptr %22, align 4, !tbaa !15
  %128 = trunc i32 %127 to i8
  %129 = load ptr, ptr %11, align 8, !tbaa !12
  %130 = load i32, ptr %23, align 4, !tbaa !15
  %131 = zext i32 %130 to i64
  %132 = getelementptr inbounds nuw %struct.FSEv06_decode_t, ptr %129, i64 %131
  %133 = getelementptr inbounds nuw %struct.FSEv06_decode_t, ptr %132, i32 0, i32 1
  store i8 %128, ptr %133, align 2, !tbaa !28
  %134 = load i32, ptr %23, align 4, !tbaa !15
  %135 = load i32, ptr %21, align 4, !tbaa !15
  %136 = add i32 %134, %135
  %137 = load i32, ptr %20, align 4, !tbaa !15
  %138 = and i32 %136, %137
  store i32 %138, ptr %23, align 4, !tbaa !15
  br label %139

139:                                              ; preds = %143, %126
  %140 = load i32, ptr %23, align 4, !tbaa !15
  %141 = load i32, ptr %15, align 4, !tbaa !15
  %142 = icmp ugt i32 %140, %141
  br i1 %142, label %143, label %149

143:                                              ; preds = %139
  %144 = load i32, ptr %23, align 4, !tbaa !15
  %145 = load i32, ptr %21, align 4, !tbaa !15
  %146 = add i32 %144, %145
  %147 = load i32, ptr %20, align 4, !tbaa !15
  %148 = and i32 %146, %147
  store i32 %148, ptr %23, align 4, !tbaa !15
  br label %139, !llvm.loop !31

149:                                              ; preds = %139
  br label %150

150:                                              ; preds = %149
  %151 = load i32, ptr %24, align 4, !tbaa !15
  %152 = add nsw i32 %151, 1
  store i32 %152, ptr %24, align 4, !tbaa !15
  br label %117, !llvm.loop !32

153:                                              ; preds = %117
  call void @llvm.lifetime.end.p0(i64 4, ptr %24) #10
  br label %154

154:                                              ; preds = %153
  %155 = load i32, ptr %22, align 4, !tbaa !15
  %156 = add i32 %155, 1
  store i32 %156, ptr %22, align 4, !tbaa !15
  br label %112, !llvm.loop !33

157:                                              ; preds = %112
  %158 = load i32, ptr %23, align 4, !tbaa !15
  %159 = icmp ne i32 %158, 0
  br i1 %159, label %160, label %161

160:                                              ; preds = %157
  store i64 -1, ptr %5, align 8
  store i32 1, ptr %16, align 4
  br label %162

161:                                              ; preds = %157
  store i32 0, ptr %16, align 4
  br label %162

162:                                              ; preds = %161, %160
  call void @llvm.lifetime.end.p0(i64 4, ptr %23) #10
  call void @llvm.lifetime.end.p0(i64 4, ptr %22) #10
  call void @llvm.lifetime.end.p0(i64 4, ptr %21) #10
  call void @llvm.lifetime.end.p0(i64 4, ptr %20) #10
  %163 = load i32, ptr %16, align 4
  switch i32 %163, label %214 [
    i32 0, label %164
  ]

164:                                              ; preds = %162
  call void @llvm.lifetime.start.p0(i64 4, ptr %25) #10
  store i32 0, ptr %25, align 4, !tbaa !15
  br label %165

165:                                              ; preds = %210, %164
  %166 = load i32, ptr %25, align 4, !tbaa !15
  %167 = load i32, ptr %14, align 4, !tbaa !15
  %168 = icmp ult i32 %166, %167
  br i1 %168, label %169, label %213

169:                                              ; preds = %165
  call void @llvm.lifetime.start.p0(i64 1, ptr %26) #10
  %170 = load ptr, ptr %11, align 8, !tbaa !12
  %171 = load i32, ptr %25, align 4, !tbaa !15
  %172 = zext i32 %171 to i64
  %173 = getelementptr inbounds nuw %struct.FSEv06_decode_t, ptr %170, i64 %172
  %174 = getelementptr inbounds nuw %struct.FSEv06_decode_t, ptr %173, i32 0, i32 1
  %175 = load i8, ptr %174, align 2, !tbaa !28
  store i8 %175, ptr %26, align 1, !tbaa !34
  call void @llvm.lifetime.start.p0(i64 2, ptr %27) #10
  %176 = load i8, ptr %26, align 1, !tbaa !34
  %177 = zext i8 %176 to i64
  %178 = getelementptr inbounds nuw [256 x i16], ptr %12, i64 0, i64 %177
  %179 = load i16, ptr %178, align 2, !tbaa !20
  %180 = add i16 %179, 1
  store i16 %180, ptr %178, align 2, !tbaa !20
  store i16 %179, ptr %27, align 2, !tbaa !20
  %181 = load i32, ptr %9, align 4, !tbaa !15
  %182 = load i16, ptr %27, align 2, !tbaa !20
  %183 = zext i16 %182 to i32
  %184 = call i32 @BITv06_highbit32(i32 noundef %183)
  %185 = sub i32 %181, %184
  %186 = trunc i32 %185 to i8
  %187 = load ptr, ptr %11, align 8, !tbaa !12
  %188 = load i32, ptr %25, align 4, !tbaa !15
  %189 = zext i32 %188 to i64
  %190 = getelementptr inbounds nuw %struct.FSEv06_decode_t, ptr %187, i64 %189
  %191 = getelementptr inbounds nuw %struct.FSEv06_decode_t, ptr %190, i32 0, i32 2
  store i8 %186, ptr %191, align 1, !tbaa !35
  %192 = load i16, ptr %27, align 2, !tbaa !20
  %193 = zext i16 %192 to i32
  %194 = load ptr, ptr %11, align 8, !tbaa !12
  %195 = load i32, ptr %25, align 4, !tbaa !15
  %196 = zext i32 %195 to i64
  %197 = getelementptr inbounds nuw %struct.FSEv06_decode_t, ptr %194, i64 %196
  %198 = getelementptr inbounds nuw %struct.FSEv06_decode_t, ptr %197, i32 0, i32 2
  %199 = load i8, ptr %198, align 1, !tbaa !35
  %200 = zext i8 %199 to i32
  %201 = shl i32 %193, %200
  %202 = load i32, ptr %14, align 4, !tbaa !15
  %203 = sub i32 %201, %202
  %204 = trunc i32 %203 to i16
  %205 = load ptr, ptr %11, align 8, !tbaa !12
  %206 = load i32, ptr %25, align 4, !tbaa !15
  %207 = zext i32 %206 to i64
  %208 = getelementptr inbounds nuw %struct.FSEv06_decode_t, ptr %205, i64 %207
  %209 = getelementptr inbounds nuw %struct.FSEv06_decode_t, ptr %208, i32 0, i32 0
  store i16 %204, ptr %209, align 2, !tbaa !36
  call void @llvm.lifetime.end.p0(i64 2, ptr %27) #10
  call void @llvm.lifetime.end.p0(i64 1, ptr %26) #10
  br label %210

210:                                              ; preds = %169
  %211 = load i32, ptr %25, align 4, !tbaa !15
  %212 = add i32 %211, 1
  store i32 %212, ptr %25, align 4, !tbaa !15
  br label %165, !llvm.loop !37

213:                                              ; preds = %165
  call void @llvm.lifetime.end.p0(i64 4, ptr %25) #10
  store i64 0, ptr %5, align 8
  store i32 1, ptr %16, align 4
  br label %214

214:                                              ; preds = %213, %162, %43, %39
  call void @llvm.lifetime.end.p0(i64 4, ptr %15) #10
  call void @llvm.lifetime.end.p0(i64 4, ptr %14) #10
  call void @llvm.lifetime.end.p0(i64 4, ptr %13) #10
  call void @llvm.lifetime.end.p0(i64 512, ptr %12) #10
  call void @llvm.lifetime.end.p0(i64 8, ptr %11) #10
  call void @llvm.lifetime.end.p0(i64 8, ptr %10) #10
  %215 = load i64, ptr %5, align 8
  ret i64 %215
}