; Function Attrs: nofree norecurse nosync nounwind memory(argmem: readwrite) uwtable
define range(i64 -46, 1) i64 @FSEv06_buildDTable(ptr noundef captures(none) %0, ptr noundef readonly captures(none) %1, i32 noundef %2, i32 noundef %3) local_unnamed_addr #2 {
  %5 = alloca [256 x i16], align 16
  %6 = getelementptr inbounds nuw i8, ptr %0, i64 4
  call void @llvm.lifetime.start.p0(i64 512, ptr nonnull %5) #28
  %7 = add i32 %2, 1
  %8 = shl nuw i32 1, %3
  %9 = add i32 %8, -1
  %10 = icmp ugt i32 %2, 255
  br i1 %10, label %.loopexit, label %11

11:                                               ; preds = %4
  %12 = icmp ugt i32 %3, 12
  br i1 %12, label %.loopexit, label %.lr.ph

.lr.ph:                                           ; preds = %11
  %13 = trunc nuw nsw i32 %3 to i16
  %sext = shl nuw nsw i32 32768, %3
  %14 = lshr exact i32 %sext, 16
  %wide.trip.count = zext nneg i32 %7 to i64
  br label %15

15:                                               ; preds = %.lr.ph, %26
  %indvars.iv = phi i64 [ 0, %.lr.ph ], [ %indvars.iv.next, %26 ]
  %.06483 = phi i32 [ %9, %.lr.ph ], [ %.165, %26 ]
  %.sroa.4.082 = phi i16 [ 1, %.lr.ph ], [ %.sroa.4.2, %26 ]
  %16 = getelementptr inbounds nuw i16, ptr %1, i64 %indvars.iv
  %17 = load i16, ptr %16, align 2, !tbaa !10
  %18 = icmp eq i16 %17, -1
  br i1 %18, label %19, label %24

19:                                               ; preds = %15
  %20 = trunc i64 %indvars.iv to i8
  %21 = add i32 %.06483, -1
  %22 = zext i32 %.06483 to i64
  %.idx78 = shl nuw nsw i64 %22, 2
  %.offs79 = or disjoint i64 %.idx78, 2
  %23 = getelementptr inbounds nuw i8, ptr %6, i64 %.offs79
  store i8 %20, ptr %23, align 2, !tbaa !14
  br label %26

24:                                               ; preds = %15
  %25 = sext i16 %17 to i32
  %.not77 = icmp sgt i32 %14, %25
  %spec.select = select i1 %.not77, i16 %.sroa.4.082, i16 0
  br label %26

26:                                               ; preds = %19, %24
  %.sink = phi i16 [ 1, %19 ], [ %17, %24 ]
  %.sroa.4.2 = phi i16 [ %.sroa.4.082, %19 ], [ %spec.select, %24 ]
  %.165 = phi i32 [ %21, %19 ], [ %.06483, %24 ]
  %27 = getelementptr inbounds nuw [256 x i16], ptr %5, i64 0, i64 %indvars.iv
  store i16 %.sink, ptr %27, align 2, !tbaa !10
  %indvars.iv.next = add nuw nsw i64 %indvars.iv, 1
  %exitcond.not = icmp eq i64 %indvars.iv.next, %wide.trip.count
  br i1 %exitcond.not, label %.preheader80.lr.ph, label %15, !llvm.loop !16

.preheader80.lr.ph:                               ; preds = %26
  store i16 %13, ptr %0, align 4
  %.sroa.4.0..sroa_idx = getelementptr inbounds nuw i8, ptr %0, i64 2
  store i16 %.sroa.4.2, ptr %.sroa.4.0..sroa_idx, align 2
  %28 = lshr i32 %8, 3
  %29 = lshr i32 %8, 1
  %30 = add nuw nsw i32 %28, 3
  %31 = add nuw nsw i32 %30, %29
  %umax = tail call i32 @llvm.umax.i32(i32 %7, i32 1)
  %wide.trip.count99 = zext nneg i32 %umax to i64
  br label %.preheader80

.preheader80:                                     ; preds = %.preheader80.lr.ph, %._crit_edge88
  %indvars.iv96 = phi i64 [ 0, %.preheader80.lr.ph ], [ %indvars.iv.next97, %._crit_edge88 ]
  %.06891 = phi i32 [ 0, %.preheader80.lr.ph ], [ %.169.lcssa, %._crit_edge88 ]
  %32 = getelementptr inbounds nuw i16, ptr %1, i64 %indvars.iv96
  %33 = load i16, ptr %32, align 2, !tbaa !10
  %34 = sext i16 %33 to i32
  %35 = icmp sgt i16 %33, 0
  br i1 %35, label %.lr.ph87, label %._crit_edge88

.lr.ph87:                                         ; preds = %.preheader80
  %36 = trunc i64 %indvars.iv96 to i8
  br label %37

37:                                               ; preds = %.lr.ph87, %42
  %.06786 = phi i32 [ 0, %.lr.ph87 ], [ %43, %42 ]
  %.16985 = phi i32 [ %.06891, %.lr.ph87 ], [ %.2, %42 ]
  %38 = zext i32 %.16985 to i64
  %.idx = shl nuw nsw i64 %38, 2
  %.offs = or disjoint i64 %.idx, 2
  %39 = getelementptr inbounds nuw i8, ptr %6, i64 %.offs
  store i8 %36, ptr %39, align 2, !tbaa !14
  br label %40

40:                                               ; preds = %40, %37
  %.169.pn = phi i32 [ %.16985, %37 ], [ %.2, %40 ]
  %.pn = add i32 %31, %.169.pn
  %.2 = and i32 %.pn, %9
  %41 = icmp ugt i32 %.2, %.165
  br i1 %41, label %40, label %42, !llvm.loop !17

42:                                               ; preds = %40
  %43 = add nuw nsw i32 %.06786, 1
  %exitcond95.not = icmp eq i32 %43, %34
  br i1 %exitcond95.not, label %._crit_edge88, label %37, !llvm.loop !18

._crit_edge88:                                    ; preds = %42, %.preheader80
  %.169.lcssa = phi i32 [ %.06891, %.preheader80 ], [ %.2, %42 ]
  %indvars.iv.next97 = add nuw nsw i64 %indvars.iv96, 1
  %exitcond100.not = icmp eq i64 %indvars.iv.next97, %wide.trip.count99
  br i1 %exitcond100.not, label %._crit_edge92, label %.preheader80, !llvm.loop !19

._crit_edge92:                                    ; preds = %._crit_edge88
  %.not = icmp eq i32 %.169.lcssa, 0
  br i1 %.not, label %.preheader.preheader, label %.loopexit

.preheader.preheader:                             ; preds = %._crit_edge92
  %wide.trip.count105 = zext nneg i32 %8 to i64
  br label %.preheader

.preheader:                                       ; preds = %.preheader.preheader, %.preheader
  %indvars.iv101 = phi i64 [ 0, %.preheader.preheader ], [ %indvars.iv.next102, %.preheader ]
  %44 = getelementptr inbounds nuw %struct.FSEv06_decode_t, ptr %6, i64 %indvars.iv101
  %45 = getelementptr inbounds nuw i8, ptr %44, i64 2
  %46 = load i8, ptr %45, align 2, !tbaa !14
  %47 = zext i8 %46 to i64
  %48 = getelementptr inbounds nuw [256 x i16], ptr %5, i64 0, i64 %47
  %49 = load i16, ptr %48, align 2, !tbaa !10
  %50 = add i16 %49, 1
  store i16 %50, ptr %48, align 2, !tbaa !10
  %51 = zext i16 %49 to i32
  %52 = tail call range(i32 0, 33) i32 @llvm.ctlz.i32(i32 %51, i1 true)
  %53 = xor i32 %52, 31
  %54 = sub nsw i32 %3, %53
  %55 = trunc nsw i32 %54 to i8
  %56 = getelementptr inbounds nuw i8, ptr %44, i64 3
  store i8 %55, ptr %56, align 1, !tbaa !20
  %57 = and i32 %54, 255
  %58 = shl i32 %51, %57
  %59 = sub i32 %58, %8
  %60 = trunc i32 %59 to i16
  store i16 %60, ptr %44, align 2, !tbaa !21
  %indvars.iv.next102 = add nuw nsw i64 %indvars.iv101, 1
  %exitcond106.not = icmp eq i64 %indvars.iv.next102, %wide.trip.count105
  br i1 %exitcond106.not, label %.loopexit, label %.preheader, !llvm.loop !22

.loopexit:                                        ; preds = %.preheader, %11, %4, %._crit_edge92
  %.0 = phi i64 [ -1, %._crit_edge92 ], [ -46, %4 ], [ -44, %11 ], [ 0, %.preheader ]
  call void @llvm.lifetime.end.p0(i64 512, ptr nonnull %5) #28
  ret i64 %.0
}